target datalayout = "e-m:e-p270:32:32-p271:32:32-p272:64:64-i64:64-i128:128-f80:128-n8:16:32:64-S128"
target triple = "x86_64-unknown-linux-gnu"

%"class.testing::internal::ParamGenerator" = type { %"class.std::shared_ptr" }
%"class.std::shared_ptr" = type { %"class.std::__shared_ptr" }
%"class.std::__shared_ptr" = type { ptr, %"class.std::__shared_count" }
%"class.std::__shared_count" = type { ptr }
%"class.testing::internal::CartesianProductHolder" = type { %"class.std::tuple.80" }
%"class.std::tuple.80" = type { %"struct.std::_Tuple_impl.81" }
%"struct.std::_Tuple_impl.81" = type { %"struct.std::_Tuple_impl.82", %"struct.std::_Head_base.90" }
%"struct.std::_Tuple_impl.82" = type { %"struct.std::_Head_base.83" }
%"struct.std::_Head_base.83" = type { %"class.testing::internal::ValueArray" }
%"class.testing::internal::ValueArray" = type { %"class.testing::internal::FlatTuple" }
%"class.testing::internal::FlatTuple" = type { %"struct.testing::internal::FlatTupleBase" }
%"struct.testing::internal::FlatTupleBase" = type { %"struct.testing::internal::FlatTupleElemBase", %"struct.testing::internal::FlatTupleElemBase.84", %"struct.testing::internal::FlatTupleElemBase.85", %"struct.testing::internal::FlatTupleElemBase.86", %"struct.testing::internal::FlatTupleElemBase.87", %"struct.testing::internal::FlatTupleElemBase.88", %"struct.testing::internal::FlatTupleElemBase.89" }
%"struct.testing::internal::FlatTupleElemBase" = type { double }
%"struct.testing::internal::FlatTupleElemBase.84" = type { double }
%"struct.testing::internal::FlatTupleElemBase.85" = type { double }
%"struct.testing::internal::FlatTupleElemBase.86" = type { double }
%"struct.testing::internal::FlatTupleElemBase.87" = type { double }
%"struct.testing::internal::FlatTupleElemBase.88" = type { double }
%"struct.testing::internal::FlatTupleElemBase.89" = type { double }
%"struct.std::_Head_base.90" = type { %"class.testing::internal::ValueArray" }

; Function Attrs: mustprogress nounwind uwtable
define linkonce_odr dso_local void @_ZNSt10_Head_baseILm1EN7testing8internal10ValueArrayIJdddddddEEELb0EEC2ERKS3_(ptr noundef nonnull align 8 dereferenceable(56) %this, ptr noundef nonnull align 8 dereferenceable(56) %__h) unnamed_addr #5 comdat align 2 {
entry:
  %this.addr = alloca ptr, align 8
  %__h.addr = alloca ptr, align 8
  store ptr %this, ptr %this.addr, align 8
  store ptr %__h, ptr %__h.addr, align 8
  %this1 = load ptr, ptr %this.addr, align 8
  %_M_head_impl = getelementptr inbounds %"struct.std::_Head_base.83", ptr %this1, i32 0, i32 0
  %0 = load ptr, ptr %__h.addr, align 8
  call void @llvm.memcpy.p0.p0.i64(ptr align 8 %_M_head_impl, ptr align 8 %0, i64 56, i1 false)
  ret void
}

; Function Attrs: mustprogress nounwind uwtable
define linkonce_odr dso_local void @_ZNSt10_Head_baseILm0EN7testing8internal10ValueArrayIJdddddddEEELb0EEC2ERKS3_(ptr noundef nonnull align 8 dereferenceable(56) %this, ptr noundef nonnull align 8 dereferenceable(56) %__h) unnamed_addr #5 comdat align 2 {
entry:
  %this.addr = alloca ptr, align 8
  %__h.addr = alloca ptr, align 8
  store ptr %this, ptr %this.addr, align 8
  store ptr %__h, ptr %__h.addr, align 8
  %this1 = load ptr, ptr %this.addr, align 8
  %_M_head_impl = getelementptr inbounds %"struct.std::_Head_base.90", ptr %this1, i32 0, i32 0
  %0 = load ptr, ptr %__h.addr, align 8
  call void @llvm.memcpy.p0.p0.i64(ptr align 8 %_M_head_impl, ptr align 8 %0, i64 56, i1 false)
  ret void
}

; Function Attrs: mustprogress uwtable
define linkonce_odr dso_local void @_ZNSt11_Tuple_implILm1EJN7testing8internal10ValueArrayIJdddddddEEEEEC2ERKS3_(ptr noundef nonnull align 8 dereferenceable(56) %this, ptr noundef nonnull align 8 dereferenceable(56) %__head) unnamed_addr #4 comdat align 2 {
entry:
  %this.addr = alloca ptr, align 8
  %__head.addr = alloca ptr, align 8
  store ptr %this, ptr %this.addr, align 8
  store ptr %__head, ptr %__head.addr, align 8
  %this1 = load ptr, ptr %this.addr, align 8
  %0 = load ptr, ptr %__head.addr, align 8
  call void @_ZNSt10_Head_baseILm1EN7testing8internal10ValueArrayIJdddddddEEELb0EEC2ERKS3_(ptr noundef nonnull align 8 dereferenceable(56) %this1, ptr noundef nonnull align 8 dereferenceable(56) %0)
  ret void
}

; Function Attrs: mustprogress nounwind uwtable
define linkonce_odr dso_local void @_ZN7testing8internal17FlatTupleElemBaseINS0_9FlatTupleIJdddddddEEELm6EEC2IdEENS0_21FlatTupleConstructTagEOT_(ptr noundef nonnull align 8 dereferenceable(8) %this, ptr noundef nonnull align 8 dereferenceable(8) %t) unnamed_addr #5 comdat align 2 {
entry:
  %this.addr = alloca ptr, align 8
  %t.addr = alloca ptr, align 8
  store ptr %this, ptr %this.addr, align 8
  store ptr %t, ptr %t.addr, align 8
  %this1 = load ptr, ptr %this.addr, align 8
  %value = getelementptr inbounds %"struct.testing::internal::FlatTupleElemBase.89", ptr %this1, i32 0, i32 0
  %0 = load ptr, ptr %t.addr, align 8
  %1 = load double, ptr %0, align 8
  store double %1, ptr %value, align 8
  ret void
}

; Function Attrs: mustprogress nounwind uwtable
define linkonce_odr dso_local void @_ZN7testing8internal17FlatTupleElemBaseINS0_9FlatTupleIJdddddddEEELm5EEC2IdEENS0_21FlatTupleConstructTagEOT_(ptr noundef nonnull align 8 dereferenceable(8) %this, ptr noundef nonnull align 8 dereferenceable(8) %t) unnamed_addr #5 comdat align 2 {
entry:
  %this.addr = alloca ptr, align 8
  %t.addr = alloca ptr, align 8
  store ptr %this, ptr %this.addr, align 8
  store ptr %t, ptr %t.addr, align 8
  %this1 = load ptr, ptr %this.addr, align 8
  %value = getelementptr inbounds %"struct.testing::internal::FlatTupleElemBase.88", ptr %this1, i32 0, i32 0
  %0 = load ptr, ptr %t.addr, align 8
  %1 = load double, ptr %0, align 8
  store double %1, ptr %value, align 8
  ret void
}

; Function Attrs: mustprogress nounwind uwtable
define linkonce_odr dso_local void @_ZN7testing8internal17FlatTupleElemBaseINS0_9FlatTupleIJdddddddEEELm4EEC2IdEENS0_21FlatTupleConstructTagEOT_(ptr noundef nonnull align 8 dereferenceable(8) %this, ptr noundef nonnull align 8 dereferenceable(8) %t) unnamed_addr #5 comdat align 2 {
entry:
  %this.addr = alloca ptr, align 8
  %t.addr = alloca ptr, align 8
  store ptr %this, ptr %this.addr, align 8
  store ptr %t, ptr %t.addr, align 8
  %this1 = load ptr, ptr %this.addr, align 8
  %value = getelementptr inbounds %"struct.testing::internal::FlatTupleElemBase.87", ptr %this1, i32 0, i32 0
  %0 = load ptr, ptr %t.addr, align 8
  %1 = load double, ptr %0, align 8
  store double %1, ptr %value, align 8
  ret void
}

; Function Attrs: mustprogress nounwind uwtable
define linkonce_odr dso_local void @_ZN7testing8internal17FlatTupleElemBaseINS0_9FlatTupleIJdddddddEEELm3EEC2IdEENS0_21FlatTupleConstructTagEOT_(ptr noundef nonnull align 8 dereferenceable(8) %this, ptr noundef nonnull align 8 dereferenceable(8) %t) unnamed_addr #5 comdat align 2 {
entry:
  %this.addr = alloca ptr, align 8
  %t.addr = alloca ptr, align 8
  store ptr %this, ptr %this.addr, align 8
  store ptr %t, ptr %t.addr, align 8
  %this1 = load ptr, ptr %this.addr, align 8
  %value = getelementptr inbounds %"struct.testing::internal::FlatTupleElemBase.86", ptr %this1, i32 0, i32 0
  %0 = load ptr, ptr %t.addr, align 8
  %1 = load double, ptr %0, align 8
  store double %1, ptr %value, align 8
  ret void
}

; Function Attrs: mustprogress nounwind uwtable
define linkonce_odr dso_local void @_ZN7testing8internal17FlatTupleElemBaseINS0_9FlatTupleIJdddddddEEELm2EEC2IdEENS0_21FlatTupleConstructTagEOT_(ptr noundef nonnull align 8 dereferenceable(8) %this, ptr noundef nonnull align 8 dereferenceable(8) %t) unnamed_addr #5 comdat align 2 {
entry:
  %this.addr = alloca ptr, align 8
  %t.addr = alloca ptr, align 8
  store ptr %this, ptr %this.addr, align 8
  store ptr %t, ptr %t.addr, align 8
  %this1 = load ptr, ptr %this.addr, align 8
  %value = getelementptr inbounds %"struct.testing::internal::FlatTupleElemBase.85", ptr %this1, i32 0, i32 0
  %0 = load ptr, ptr %t.addr, align 8
  %1 = load double, ptr %0, align 8
  store double %1, ptr %value, align 8
  ret void
}

; Function Attrs: mustprogress nounwind uwtable
define linkonce_odr dso_local void @_ZN7testing8internal17FlatTupleElemBaseINS0_9FlatTupleIJdddddddEEELm1EEC2IdEENS0_21FlatTupleConstructTagEOT_(ptr noundef nonnull align 8 dereferenceable(8) %this, ptr noundef nonnull align 8 dereferenceable(8) %t) unnamed_addr #5 comdat align 2 {
entry:
  %this.addr = alloca ptr, align 8
  %t.addr = alloca ptr, align 8
  store ptr %this, ptr %this.addr, align 8
  store ptr %t, ptr %t.addr, align 8
  %this1 = load ptr, ptr %this.addr, align 8
  %value = getelementptr inbounds %"struct.testing::internal::FlatTupleElemBase.84", ptr %this1, i32 0, i32 0
  %0 = load ptr, ptr %t.addr, align 8
  %1 = load double, ptr %0, align 8
  store double %1, ptr %value, align 8
  ret void
}

; Function Attrs: mustprogress nounwind uwtable
define linkonce_odr dso_local void @_ZN7testing8internal17FlatTupleElemBaseINS0_9FlatTupleIJdddddddEEELm0EEC2IdEENS0_21FlatTupleConstructTagEOT_(ptr noundef nonnull align 8 dereferenceable(8) %this, ptr noundef nonnull align 8 dereferenceable(8) %t) unnamed_addr #5 comdat align 2 {
entry:
  %this.addr = alloca ptr, align 8
  %t.addr = alloca ptr, align 8
  store ptr %this, ptr %this.addr, align 8
  store ptr %t, ptr %t.addr, align 8
  %this1 = load ptr, ptr %this.addr, align 8
  %value = getelementptr inbounds %"struct.testing::internal::FlatTupleElemBase", ptr %this1, i32 0, i32 0
  %0 = load ptr, ptr %t.addr, align 8
  %1 = load double, ptr %0, align 8
  store double %1, ptr %value, align 8
  ret void
}

; Function Attrs: noreturn nounwind uwtable
define linkonce_odr hidden void @__clang_call_terminate(ptr noundef %0) #10 comdat {
  %2 = call ptr @__cxa_begin_catch(ptr %0) #3
  call void @_ZSt9terminatev() #25
  unreachable
}

; Function Attrs: mustprogress uwtable
define linkonce_odr dso_local void @_ZNSt11_Tuple_implILm0EJN7testing8internal10ValueArrayIJdddddddEEES3_EEC2ERKS3_S6_(ptr noundef nonnull align 8 dereferenceable(112) %this, ptr noundef nonnull align 8 dereferenceable(56) %__head, ptr noundef nonnull align 8 dereferenceable(56) %__tail) unnamed_addr #4 comdat align 2 {
entry:
  %this.addr = alloca ptr, align 8
  %__head.addr = alloca ptr, align 8
  %__tail.addr = alloca ptr, align 8
  store ptr %this, ptr %this.addr, align 8
  store ptr %__head, ptr %__head.addr, align 8
  store ptr %__tail, ptr %__tail.addr, align 8
  %this1 = load ptr, ptr %this.addr, align 8
  %0 = load ptr, ptr %__tail.addr, align 8
  call void @_ZNSt11_Tuple_implILm1EJN7testing8internal10ValueArrayIJdddddddEEEEEC2ERKS3_(ptr noundef nonnull align 8 dereferenceable(56) %this1, ptr noundef nonnull align 8 dereferenceable(56) %0)
  %1 = getelementptr inbounds i8, ptr %this1, i64 56
  %2 = load ptr, ptr %__head.addr, align 8
  call void @_ZNSt10_Head_baseILm0EN7testing8internal10ValueArrayIJdddddddEEELb0EEC2ERKS3_(ptr noundef nonnull align 8 dereferenceable(56) %1, ptr noundef nonnull align 8 dereferenceable(56) %2)
  ret void
}

; Function Attrs: mustprogress uwtable
define linkonce_odr dso_local void @_ZN7testing8internal13FlatTupleBaseINS0_9FlatTupleIJdddddddEEENS0_13IndexSequenceIJLm0ELm1ELm2ELm3ELm4ELm5ELm6EEEEEC2IJdddddddEEENS0_21FlatTupleConstructTagEDpOT_(ptr noundef nonnull align 8 dereferenceable(56) %this, ptr noundef nonnull align 8 dereferenceable(8) %args, ptr noundef nonnull align 8 dereferenceable(8) %args1, ptr noundef nonnull align 8 dereferenceable(8) %args3, ptr noundef nonnull align 8 dereferenceable(8) %args5, ptr noundef nonnull align 8 dereferenceable(8) %args7, ptr noundef nonnull align 8 dereferenceable(8) %args9, ptr noundef nonnull align 8 dereferenceable(8) %args11) unnamed_addr #4 comdat align 2 {
entry:
  %this.addr = alloca ptr, align 8
  %args.addr = alloca ptr, align 8
  %args.addr2 = alloca ptr, align 8
  %args.addr4 = alloca ptr, align 8
  %args.addr6 = alloca ptr, align 8
  %args.addr8 = alloca ptr, align 8
  %args.addr10 = alloca ptr, align 8
  %args.addr12 = alloca ptr, align 8
  store ptr %this, ptr %this.addr, align 8
  store ptr %args, ptr %args.addr, align 8
  store ptr %args1, ptr %args.addr2, align 8
  store ptr %args3, ptr %args.addr4, align 8
  store ptr %args5, ptr %args.addr6, align 8
  store ptr %args7, ptr %args.addr8, align 8
  store ptr %args9, ptr %args.addr10, align 8
  store ptr %args11, ptr %args.addr12, align 8
  %this13 = load ptr, ptr %this.addr, align 8
  %0 = load ptr, ptr %args.addr, align 8
  call void @_ZN7testing8internal17FlatTupleElemBaseINS0_9FlatTupleIJdddddddEEELm0EEC2IdEENS0_21FlatTupleConstructTagEOT_(ptr noundef nonnull align 8 dereferenceable(8) %this13, ptr noundef nonnull align 8 dereferenceable(8) %0)
  %1 = getelementptr inbounds i8, ptr %this13, i64 8
  %2 = load ptr, ptr %args.addr2, align 8
  call void @_ZN7testing8internal17FlatTupleElemBaseINS0_9FlatTupleIJdddddddEEELm1EEC2IdEENS0_21FlatTupleConstructTagEOT_(ptr noundef nonnull align 8 dereferenceable(8) %1, ptr noundef nonnull align 8 dereferenceable(8) %2)
  %3 = getelementptr inbounds i8, ptr %this13, i64 16
  %4 = load ptr, ptr %args.addr4, align 8
  call void @_ZN7testing8internal17FlatTupleElemBaseINS0_9FlatTupleIJdddddddEEELm2EEC2IdEENS0_21FlatTupleConstructTagEOT_(ptr noundef nonnull align 8 dereferenceable(8) %3, ptr noundef nonnull align 8 dereferenceable(8) %4)
  %5 = getelementptr inbounds i8, ptr %this13, i64 24
  %6 = load ptr, ptr %args.addr6, align 8
  call void @_ZN7testing8internal17FlatTupleElemBaseINS0_9FlatTupleIJdddddddEEELm3EEC2IdEENS0_21FlatTupleConstructTagEOT_(ptr noundef nonnull align 8 dereferenceable(8) %5, ptr noundef nonnull align 8 dereferenceable(8) %6)
  %7 = getelementptr inbounds i8, ptr %this13, i64 32
  %8 = load ptr, ptr %args.addr8, align 8
  call void @_ZN7testing8internal17FlatTupleElemBaseINS0_9FlatTupleIJdddddddEEELm4EEC2IdEENS0_21FlatTupleConstructTagEOT_(ptr noundef nonnull align 8 dereferenceable(8) %7, ptr noundef nonnull align 8 dereferenceable(8) %8)
  %9 = getelementptr inbounds i8, ptr %this13, i64 40
  %10 = load ptr, ptr %args.addr10, align 8
  call void @_ZN7testing8internal17FlatTupleElemBaseINS0_9FlatTupleIJdddddddEEELm5EEC2IdEENS0_21FlatTupleConstructTagEOT_(ptr noundef nonnull align 8 dereferenceable(8) %9, ptr noundef nonnull align 8 dereferenceable(8) %10)
  %11 = getelementptr inbounds i8, ptr %this13, i64 48
  %12 = load ptr, ptr %args.addr12, align 8
  call void @_ZN7testing8internal17FlatTupleElemBaseINS0_9FlatTupleIJdddddddEEELm6EEC2IdEENS0_21FlatTupleConstructTagEOT_(ptr noundef nonnull align 8 dereferenceable(8) %11, ptr noundef nonnull align 8 dereferenceable(8) %12)
  ret void
}

; Function Attrs: mustprogress nounwind uwtable
define linkonce_odr dso_local void @_ZNSt5tupleIJN7testing8internal10ValueArrayIJdddddddEEES3_EEC2ILb1ETnNSt9enable_ifIXclsr4_TCCIXT_EEE29__is_implicitly_constructibleIRKS3_S8_EEEbE4typeELb1EEES8_S8_(ptr noundef nonnull align 8 dereferenceable(112) %this, ptr noundef nonnull align 8 dereferenceable(56) %__a1, ptr noundef nonnull align 8 dereferenceable(56) %__a2) unnamed_addr #5 comdat align 2 personality ptr @__gxx_personality_v0 {
entry:
  %this.addr = alloca ptr, align 8
  %__a1.addr = alloca ptr, align 8
  %__a2.addr = alloca ptr, align 8
  store ptr %this, ptr %this.addr, align 8
  store ptr %__a1, ptr %__a1.addr, align 8
  store ptr %__a2, ptr %__a2.addr, align 8
  %this1 = load ptr, ptr %this.addr, align 8
  %0 = load ptr, ptr %__a1.addr, align 8
  %1 = load ptr, ptr %__a2.addr, align 8
  invoke void @_ZNSt11_Tuple_implILm0EJN7testing8internal10ValueArrayIJdddddddEEES3_EEC2ERKS3_S6_(ptr noundef nonnull align 8 dereferenceable(112) %this1, ptr noundef nonnull align 8 dereferenceable(56) %0, ptr noundef nonnull align 8 dereferenceable(56) %1)
          to label %invoke.cont unwind label %terminate.lpad

invoke.cont:                                      ; preds = %entry
  ret void

terminate.lpad:                                   ; preds = %entry
  %2 = landingpad { ptr, i32 }
          catch ptr null
  %3 = extractvalue { ptr, i32 } %2, 0
  call void @__clang_call_terminate(ptr %3) #25
  unreachable
}

; Function Attrs: mustprogress uwtable
define linkonce_odr dso_local void @_ZN7testing8internal9FlatTupleIJdddddddEEC2IJdddddddEEENS0_21FlatTupleConstructTagEDpOT_(ptr noundef nonnull align 8 dereferenceable(56) %this, ptr noundef nonnull align 8 dereferenceable(8) %args, ptr noundef nonnull align 8 dereferenceable(8) %args1, ptr noundef nonnull align 8 dereferenceable(8) %args3, ptr noundef nonnull align 8 dereferenceable(8) %args5, ptr noundef nonnull align 8 dereferenceable(8) %args7, ptr noundef nonnull align 8 dereferenceable(8) %args9, ptr noundef nonnull align 8 dereferenceable(8) %args11) unnamed_addr #4 comdat align 2 {
entry:
  %this.addr = alloca ptr, align 8
  %args.addr = alloca ptr, align 8
  %args.addr2 = alloca ptr, align 8
  %args.addr4 = alloca ptr, align 8
  %args.addr6 = alloca ptr, align 8
  %args.addr8 = alloca ptr, align 8
  %args.addr10 = alloca ptr, align 8
  %args.addr12 = alloca ptr, align 8
  store ptr %this, ptr %this.addr, align 8
  store ptr %args, ptr %args.addr, align 8
  store ptr %args1, ptr %args.addr2, align 8
  store ptr %args3, ptr %args.addr4, align 8
  store ptr %args5, ptr %args.addr6, align 8
  store ptr %args7, ptr %args.addr8, align 8
  store ptr %args9, ptr %args.addr10, align 8
  store ptr %args11, ptr %args.addr12, align 8
  %this13 = load ptr, ptr %this.addr, align 8
  %0 = load ptr, ptr %args.addr, align 8
  %1 = load ptr, ptr %args.addr2, align 8
  %2 = load ptr, ptr %args.addr4, align 8
  %3 = load ptr, ptr %args.addr6, align 8
  %4 = load ptr, ptr %args.addr8, align 8
  %5 = load ptr, ptr %args.addr10, align 8
  %6 = load ptr, ptr %args.addr12, align 8
  call void @_ZN7testing8internal13FlatTupleBaseINS0_9FlatTupleIJdddddddEEENS0_13IndexSequenceIJLm0ELm1ELm2ELm3ELm4ELm5ELm6EEEEEC2IJdddddddEEENS0_21FlatTupleConstructTagEDpOT_(ptr noundef nonnull align 8 dereferenceable(56) %this13, ptr noundef nonnull align 8 dereferenceable(8) %0, ptr noundef nonnull align 8 dereferenceable(8) %1, ptr noundef nonnull align 8 dereferenceable(8) %2, ptr noundef nonnull align 8 dereferenceable(8) %3, ptr noundef nonnull align 8 dereferenceable(8) %4, ptr noundef nonnull align 8 dereferenceable(8) %5, ptr noundef nonnull align 8 dereferenceable(8) %6)
  ret void
}

; Function Attrs: mustprogress nounwind uwtable
define linkonce_odr dso_local void @_ZN7testing8internal22CartesianProductHolderIJNS0_10ValueArrayIJdddddddEEES3_EEC2ERKS3_S6_(ptr noundef nonnull align 8 dereferenceable(112) %this, ptr noundef nonnull align 8 dereferenceable(56) %g, ptr noundef nonnull align 8 dereferenceable(56) %g1) unnamed_addr #5 comdat align 2 {
entry:
  %this.addr = alloca ptr, align 8
  %g.addr = alloca ptr, align 8
  %g.addr2 = alloca ptr, align 8
  store ptr %this, ptr %this.addr, align 8
  store ptr %g, ptr %g.addr, align 8
  store ptr %g1, ptr %g.addr2, align 8
  %this3 = load ptr, ptr %this.addr, align 8
  %generators_ = getelementptr inbounds %"class.testing::internal::CartesianProductHolder", ptr %this3, i32 0, i32 0
  %0 = load ptr, ptr %g.addr, align 8
  %1 = load ptr, ptr %g.addr2, align 8
  call void @_ZNSt5tupleIJN7testing8internal10ValueArrayIJdddddddEEES3_EEC2ILb1ETnNSt9enable_ifIXclsr4_TCCIXT_EEE29__is_implicitly_constructibleIRKS3_S8_EEEbE4typeELb1EEES8_S8_(ptr noundef nonnull align 8 dereferenceable(112) %generators_, ptr noundef nonnull align 8 dereferenceable(56) %0, ptr noundef nonnull align 8 dereferenceable(56) %1) #3
  ret void
}

; Function Attrs: mustprogress uwtable
define linkonce_odr dso_local void @_ZN7testing8internal10ValueArrayIJdddddddEEC2Eddddddd(ptr noundef nonnull align 8 dereferenceable(56) %this, double noundef %v, double noundef %v1, double noundef %v3, double noundef %v5, double noundef %v7, double noundef %v9, double noundef %v11) unnamed_addr #4 comdat align 2 {
entry:
  %this.addr = alloca ptr, align 8
  %v.addr = alloca double, align 8
  %v.addr2 = alloca double, align 8
  %v.addr4 = alloca double, align 8
  %v.addr6 = alloca double, align 8
  %v.addr8 = alloca double, align 8
  %v.addr10 = alloca double, align 8
  %v.addr12 = alloca double, align 8
  store ptr %this, ptr %this.addr, align 8
  store double %v, ptr %v.addr, align 8
  store double %v1, ptr %v.addr2, align 8
  store double %v3, ptr %v.addr4, align 8
  store double %v5, ptr %v.addr6, align 8
  store double %v7, ptr %v.addr8, align 8
  store double %v9, ptr %v.addr10, align 8
  store double %v11, ptr %v.addr12, align 8
  %this13 = load ptr, ptr %this.addr, align 8
  %v_ = getelementptr inbounds %"class.testing::internal::ValueArray", ptr %this13, i32 0, i32 0
  call void @_ZN7testing8internal9FlatTupleIJdddddddEEC2IJdddddddEEENS0_21FlatTupleConstructTagEDpOT_(ptr noundef nonnull align 8 dereferenceable(56) %v_, ptr noundef nonnull align 8 dereferenceable(8) %v.addr, ptr noundef nonnull align 8 dereferenceable(8) %v.addr2, ptr noundef nonnull align 8 dereferenceable(8) %v.addr4, ptr noundef nonnull align 8 dereferenceable(8) %v.addr6, ptr noundef nonnull align 8 dereferenceable(8) %v.addr8, ptr noundef nonnull align 8 dereferenceable(8) %v.addr10, ptr noundef nonnull align 8 dereferenceable(8) %v.addr12)
  ret void
}

; Function Attrs: mustprogress uwtable
define linkonce_odr dso_local void @_ZN7testing7CombineIJNS_8internal10ValueArrayIJdddddddEEES3_EEENS1_22CartesianProductHolderIJDpT_EEEDpRKS5_(ptr noalias sret(%"class.testing::internal::CartesianProductHolder") align 8 %agg.result, ptr noundef nonnull align 8 dereferenceable(56) %g, ptr noundef nonnull align 8 dereferenceable(56) %g1) #4 comdat {
entry:
  %result.ptr = alloca ptr, align 8
  %g.addr = alloca ptr, align 8
  %g.addr2 = alloca ptr, align 8
  store ptr %agg.result, ptr %result.ptr, align 8
  store ptr %g, ptr %g.addr, align 8
  store ptr %g1, ptr %g.addr2, align 8
  %0 = load ptr, ptr %g.addr, align 8
  %1 = load ptr, ptr %g.addr2, align 8
  call void @_ZN7testing8internal22CartesianProductHolderIJNS0_10ValueArrayIJdddddddEEES3_EEC2ERKS3_S6_(ptr noundef nonnull align 8 dereferenceable(112) %agg.result, ptr noundef nonnull align 8 dereferenceable(56) %0, ptr noundef nonnull align 8 dereferenceable(56) %1)
  ret void
}

; Function Attrs: mustprogress uwtable
define linkonce_odr dso_local void @_ZN7testing6ValuesIJdddddddEEENS_8internal10ValueArrayIJDpT_EEES4_(ptr noalias sret(%"class.testing::internal::ValueArray") align 8 %agg.result, double noundef %v, double noundef %v1, double noundef %v3, double noundef %v5, double noundef %v7, double noundef %v9, double noundef %v11) #4 comdat {
entry:
  %v.addr = alloca double, align 8
  %v.addr2 = alloca double, align 8
  %v.addr4 = alloca double, align 8
  %v.addr6 = alloca double, align 8
  %v.addr8 = alloca double, align 8
  %v.addr10 = alloca double, align 8
  %v.addr12 = alloca double, align 8
  store double %v, ptr %v.addr, align 8
  store double %v1, ptr %v.addr2, align 8
  store double %v3, ptr %v.addr4, align 8
  store double %v5, ptr %v.addr6, align 8
  store double %v7, ptr %v.addr8, align 8
  store double %v9, ptr %v.addr10, align 8
  store double %v11, ptr %v.addr12, align 8
  %0 = load double, ptr %v.addr, align 8
  %1 = load double, ptr %v.addr2, align 8
  %2 = load double, ptr %v.addr4, align 8
  %3 = load double, ptr %v.addr6, align 8
  %4 = load double, ptr %v.addr8, align 8
  %5 = load double, ptr %v.addr10, align 8
  %6 = load double, ptr %v.addr12, align 8
  call void @_ZN7testing8internal10ValueArrayIJdddddddEEC2Eddddddd(ptr noundef nonnull align 8 dereferenceable(56) %agg.result, double noundef %0, double noundef %1, double noundef %2, double noundef %3, double noundef %4, double noundef %5, double noundef %6)
  ret void
}

; Function Attrs: mustprogress uwtable
define internal void @_ZN12_GLOBAL__N_173gtest_TestSampleStatisticsCombinationsBetaDistributionTest_EvalGenerator_Ev(ptr noalias sret(%"class.testing::internal::ParamGenerator") align 8 %agg.result) #4 {
entry:
  %result.ptr = alloca ptr, align 8
  %ref.tmp = alloca %"class.testing::internal::CartesianProductHolder", align 8
  %ref.tmp1 = alloca %"class.testing::internal::ValueArray", align 8
  %ref.tmp2 = alloca %"class.testing::internal::ValueArray", align 8
  store ptr %agg.result, ptr %result.ptr, align 8
  call void @_ZN7testing6ValuesIJdddddddEEENS_8internal10ValueArrayIJDpT_EEES4_(ptr sret(%"class.testing::internal::ValueArray") align 8 %ref.tmp1, double noundef 1.000000e-01, double noundef 2.000000e-01, double noundef 9.000000e-01, double noundef 1.100000e+00, double noundef 2.500000e+00, double noundef 1.000000e+01, double noundef 1.234000e+02)
  call void @_ZN7testing6ValuesIJdddddddEEENS_8internal10ValueArrayIJDpT_EEES4_(ptr sret(%"class.testing::internal::ValueArray") align 8 %ref.tmp2, double noundef 1.000000e-01, double noundef 2.000000e-01, double noundef 9.000000e-01, double noundef 1.100000e+00, double noundef 2.500000e+00, double noundef 1.000000e+01, double noundef 1.234000e+02)
  call void @_ZN7testing7CombineIJNS_8internal10ValueArrayIJdddddddEEES3_EEENS1_22CartesianProductHolderIJDpT_EEEDpRKS5_(ptr sret(%"class.testing::internal::CartesianProductHolder") align 8 %ref.tmp, ptr noundef nonnull align 8 dereferenceable(56) %ref.tmp1, ptr noundef nonnull align 8 dereferenceable(56) %ref.tmp2)
  call void @_ZNK7testing8internal22CartesianProductHolderIJNS0_10ValueArrayIJdddddddEEES3_EEcvNS0_14ParamGeneratorISt5tupleIJDpT_EEEEIJddEEEv(ptr sret(%"class.testing::internal::ParamGenerator") align 8 %agg.result, ptr noundef nonnull align 8 dereferenceable(112) %ref.tmp)
  ret void
}