; Function Attrs: mustprogress uwtable
define internal void @_ZN12_GLOBAL__N_173gtest_TestSampleStatisticsCombinationsBetaDistributionTest_EvalGenerator_Ev(ptr noalias sret(%"class.testing::internal::ParamGenerator") align 8 %agg.result) #4 personality ptr @__gxx_personality_v0 {
entry:
  %ref.tmp = alloca %"class.testing::internal::CartesianProductHolder", align 16
  store <2 x double> <double 1.000000e-01, double 2.000000e-01>, ptr %ref.tmp, align 16
  %ref.tmp2.sroa.3.0.ref.tmp.sroa_idx = getelementptr inbounds i8, ptr %ref.tmp, i64 16
  store <2 x double> <double 9.000000e-01, double 1.100000e+00>, ptr %ref.tmp2.sroa.3.0.ref.tmp.sroa_idx, align 16
  %ref.tmp2.sroa.5.0.ref.tmp.sroa_idx = getelementptr inbounds i8, ptr %ref.tmp, i64 32
  store <2 x double> <double 2.500000e+00, double 1.000000e+01>, ptr %ref.tmp2.sroa.5.0.ref.tmp.sroa_idx, align 16
  %ref.tmp2.sroa.7.0.ref.tmp.sroa_idx = getelementptr inbounds i8, ptr %ref.tmp, i64 48
  store <2 x double> <double 1.234000e+02, double 1.000000e-01>, ptr %ref.tmp2.sroa.7.0.ref.tmp.sroa_idx, align 16
  %ref.tmp1.sroa.2.0..sroa_idx = getelementptr inbounds i8, ptr %ref.tmp, i64 64
  store <2 x double> <double 2.000000e-01, double 9.000000e-01>, ptr %ref.tmp1.sroa.2.0..sroa_idx, align 16
  %ref.tmp1.sroa.4.0..sroa_idx = getelementptr inbounds i8, ptr %ref.tmp, i64 80
  store <2 x double> <double 1.100000e+00, double 2.500000e+00>, ptr %ref.tmp1.sroa.4.0..sroa_idx, align 16
  %ref.tmp1.sroa.6.0..sroa_idx = getelementptr inbounds i8, ptr %ref.tmp, i64 96
  store <2 x double> <double 1.000000e+01, double 1.234000e+02>, ptr %ref.tmp1.sroa.6.0..sroa_idx, align 16
  call void @_ZNK7testing8internal22CartesianProductHolderIJNS0_10ValueArrayIJdddddddEEES3_EEcvNS0_14ParamGeneratorISt5tupleIJDpT_EEEEIJddEEEv(ptr sret(%"class.testing::internal::ParamGenerator") align 8 %agg.result, ptr noundef nonnull align 8 dereferenceable(112) %ref.tmp)
  ret void
}